target datalayout = "e-m:e-p270:32:32-p271:32:32-p272:64:64-i64:64-i128:128-f80:128-n8:16:32:64-S128"
target triple = "x86_64-pc-linux-gnu"

%struct.cli_clamav_intel = type { ptr, ptr, ptr, i32, i32, i32, i32, i64, ptr, %union.pthread_mutex_t }
%union.pthread_mutex_t = type { %struct.__pthread_mutex_s }
%struct.__pthread_mutex_s = type { i32, i32, i32, i32, i32, i16, i16, %struct.__pthread_internal_list }
%struct.__pthread_internal_list = type { ptr, ptr }

; Function Attrs: nounwind uwtable
define i64 @clamav_stats_get_num(ptr noundef %0) #0 {
  %2 = alloca i64, align 8
  %3 = alloca ptr, align 8
  %4 = alloca ptr, align 8
  store ptr %0, ptr %3, align 8
  %5 = load ptr, ptr %3, align 8
  store ptr %5, ptr %4, align 8
  %6 = load ptr, ptr %4, align 8
  %7 = icmp ne ptr %6, null
  br i1 %7, label %9, label %8

8:                                                ; preds = %1
  store i64 0, ptr %2, align 8
  br label %14

9:                                                ; preds = %1
  %10 = load ptr, ptr %4, align 8
  %11 = getelementptr inbounds %struct.cli_clamav_intel, ptr %10, i32 0, i32 3
  %12 = load i32, ptr %11, align 8
  %13 = zext i32 %12 to i64
  store i64 %13, ptr %2, align 8
  br label %14

14:                                               ; preds = %9, %8
  %15 = load i64, ptr %2, align 8
  ret i64 %15
}