; Function Attrs: mustprogress nofree norecurse nosync nounwind willreturn memory(argmem: read) uwtable
define range(i64 0, 4294967296) i64 @clamav_stats_get_num(ptr noundef readonly %0) local_unnamed_addr #1 {
  %.not = icmp eq ptr %0, null
  br i1 %.not, label %6, label %2

2:                                                ; preds = %1
  %3 = getelementptr inbounds nuw i8, ptr %0, i64 24
  %4 = load i32, ptr %3, align 8
  %5 = zext i32 %4 to i64
  br label %6

6:                                                ; preds = %1, %2
  %.0 = phi i64 [ %5, %2 ], [ 0, %1 ]
  ret i64 %.0
}